; Function Attrs: mustprogress nofree norecurse nosync nounwind willreturn memory(readwrite, inaccessiblemem: none) uwtable
define internal noundef zeroext i1 @"_ZN4llvm12function_refIFbRNS_3UseEEE11callback_fnIZNS_16InstCombinerImpl22visitGetElementPtrInstERNS_17GetElementPtrInstEE3$_0EEblS2_"(i64 noundef %0, ptr noundef nonnull readonly align 8 captures(none) dereferenceable(32) %1) #18 align 2 {
  %3 = inttoptr i64 %0 to ptr
  %.val = load ptr, ptr %3, align 8
  %4 = getelementptr i8, ptr %3, i64 8
  %.val1 = load ptr, ptr %4, align 8
  %.val.val = load i8, ptr %.val, align 1
  %5 = trunc i8 %.val.val to i1
  br i1 %5, label %"_ZZN4llvm16InstCombinerImpl22visitGetElementPtrInstERNS_17GetElementPtrInstEENK3$_0clERNS_3UseE.exit", label %6

6:                                                ; preds = %2
  %7 = getelementptr inbounds nuw i8, ptr %1, i64 24
  %.val2 = load ptr, ptr %7, align 8
  %8 = load i8, ptr %.val2, align 8
  %9 = icmp eq i8 %8, 82
  %10 = icmp eq i8 %8, 76
  %spec.select.i = or i1 %9, %10
  br label %"_ZZN4llvm16InstCombinerImpl22visitGetElementPtrInstERNS_17GetElementPtrInstEENK3$_0clERNS_3UseE.exit"

"_ZZN4llvm16InstCombinerImpl22visitGetElementPtrInstERNS_17GetElementPtrInstEENK3$_0clERNS_3UseE.exit": ; preds = %2, %6
  %11 = phi i1 [ true, %2 ], [ %spec.select.i, %6 ]
  %12 = load i8, ptr %.val1, align 1
  %13 = and i8 %12, 1
  %14 = zext i1 %11 to i8
  %15 = or i8 %13, %14
  store i8 %15, ptr %.val1, align 1
  ret i1 %11
}